target datalayout = "e-m:e-p270:32:32-p271:32:32-p272:64:64-i64:64-i128:128-f80:128-n8:16:32:64-S128"
target triple = "x86_64-pc-linux-gnu"

@.str.11 = private unnamed_addr constant [37 x i8] c"../openssl/test/rsa_sp800_56b_test.c\00", align 1
@test_check_prime_factor_range.p1 = internal constant [5 x i8] c"\0BPO3?", align 1
@test_check_prime_factor_range.p2 = internal constant [5 x i8] c"\10\00\00\00\00", align 1
@test_check_prime_factor_range.p3 = internal constant [5 x i8] c"\0BPO3@", align 1
@test_check_prime_factor_range.p4 = internal constant [5 x i8] c"\0F\FF\FF\FF\FF", align 1
@.str.21 = private unnamed_addr constant [13 x i8] c"p = BN_new()\00", align 1
@.str.22 = private unnamed_addr constant [36 x i8] c"bn_p1 = bn_load_new(p1, sizeof(p1))\00", align 1
@.str.23 = private unnamed_addr constant [36 x i8] c"bn_p2 = bn_load_new(p2, sizeof(p2))\00", align 1
@.str.24 = private unnamed_addr constant [36 x i8] c"bn_p3 = bn_load_new(p3, sizeof(p3))\00", align 1
@.str.25 = private unnamed_addr constant [36 x i8] c"bn_p4 = bn_load_new(p4, sizeof(p4))\00", align 1
@.str.26 = private unnamed_addr constant [19 x i8] c"ctx = BN_CTX_new()\00", align 1
@.str.27 = private unnamed_addr constant [20 x i8] c"BN_set_word(p, 0xA)\00", align 1
@.str.28 = private unnamed_addr constant [45 x i8] c"ossl_rsa_check_prime_factor_range(p, 8, ctx)\00", align 1
@.str.29 = private unnamed_addr constant [21 x i8] c"BN_set_word(p, 0x10)\00", align 1
@.str.30 = private unnamed_addr constant [20 x i8] c"BN_set_word(p, 0xB)\00", align 1
@.str.31 = private unnamed_addr constant [20 x i8] c"BN_set_word(p, 0xC)\00", align 1
@.str.32 = private unnamed_addr constant [20 x i8] c"BN_set_word(p, 0xF)\00", align 1
@.str.33 = private unnamed_addr constant [50 x i8] c"ossl_rsa_check_prime_factor_range(bn_p1, 72, ctx)\00", align 1
@.str.34 = private unnamed_addr constant [50 x i8] c"ossl_rsa_check_prime_factor_range(bn_p2, 72, ctx)\00", align 1
@.str.35 = private unnamed_addr constant [50 x i8] c"ossl_rsa_check_prime_factor_range(bn_p3, 72, ctx)\00", align 1
@.str.36 = private unnamed_addr constant [50 x i8] c"ossl_rsa_check_prime_factor_range(bn_p4, 72, ctx)\00", align 1

; Function Attrs: nounwind uwtable
define internal ptr @bn_load_new(ptr noundef %0, i32 noundef %1) #0 {
  %3 = alloca ptr, align 8
  %4 = alloca i32, align 4
  %5 = alloca ptr, align 8
  store ptr %0, ptr %3, align 8, !tbaa !36
  store i32 %1, ptr %4, align 4, !tbaa !4
  call void @llvm.lifetime.start.p0(i64 8, ptr %5) #3
  %6 = call ptr @BN_new()
  store ptr %6, ptr %5, align 8, !tbaa !8
  %7 = load ptr, ptr %5, align 8, !tbaa !8
  %8 = icmp ne ptr %7, null
  br i1 %8, label %9, label %14

9:                                                ; preds = %2
  %10 = load ptr, ptr %3, align 8, !tbaa !36
  %11 = load i32, ptr %4, align 4, !tbaa !4
  %12 = load ptr, ptr %5, align 8, !tbaa !8
  %13 = call ptr @BN_bin2bn(ptr noundef %10, i32 noundef %11, ptr noundef %12)
  br label %14

14:                                               ; preds = %9, %2
  %15 = load ptr, ptr %5, align 8, !tbaa !8
  call void @llvm.lifetime.end.p0(i64 8, ptr %5) #3
  ret ptr %15
}

; Function Attrs: nounwind uwtable
define internal i32 @test_check_prime_factor_range() #0 {
  %1 = alloca i32, align 4
  %2 = alloca ptr, align 8
  %3 = alloca ptr, align 8
  %4 = alloca ptr, align 8
  %5 = alloca ptr, align 8
  %6 = alloca ptr, align 8
  %7 = alloca ptr, align 8
  call void @llvm.lifetime.start.p0(i64 4, ptr %1) #3
  store i32 0, ptr %1, align 4, !tbaa !4
  call void @llvm.lifetime.start.p0(i64 8, ptr %2) #3
  store ptr null, ptr %2, align 8, !tbaa !11
  call void @llvm.lifetime.start.p0(i64 8, ptr %3) #3
  store ptr null, ptr %3, align 8, !tbaa !8
  call void @llvm.lifetime.start.p0(i64 8, ptr %4) #3
  store ptr null, ptr %4, align 8, !tbaa !8
  call void @llvm.lifetime.start.p0(i64 8, ptr %5) #3
  store ptr null, ptr %5, align 8, !tbaa !8
  call void @llvm.lifetime.start.p0(i64 8, ptr %6) #3
  store ptr null, ptr %6, align 8, !tbaa !8
  call void @llvm.lifetime.start.p0(i64 8, ptr %7) #3
  store ptr null, ptr %7, align 8, !tbaa !8
  %8 = call ptr @BN_new()
  store ptr %8, ptr %3, align 8, !tbaa !8
  %9 = call i32 @test_ptr(ptr noundef @.str.11, i32 noundef 151, ptr noundef @.str.21, ptr noundef %8)
  %10 = icmp ne i32 %9, 0
  br i1 %10, label %11, label %138

11:                                               ; preds = %0
  %12 = call ptr @bn_load_new(ptr noundef @test_check_prime_factor_range.p1, i32 noundef 5)
  store ptr %12, ptr %4, align 8, !tbaa !8
  %13 = call i32 @test_ptr(ptr noundef @.str.11, i32 noundef 152, ptr noundef @.str.22, ptr noundef %12)
  %14 = icmp ne i32 %13, 0
  br i1 %14, label %15, label %138

15:                                               ; preds = %11
  %16 = call ptr @bn_load_new(ptr noundef @test_check_prime_factor_range.p2, i32 noundef 5)
  store ptr %16, ptr %5, align 8, !tbaa !8
  %17 = call i32 @test_ptr(ptr noundef @.str.11, i32 noundef 153, ptr noundef @.str.23, ptr noundef %16)
  %18 = icmp ne i32 %17, 0
  br i1 %18, label %19, label %138

19:                                               ; preds = %15
  %20 = call ptr @bn_load_new(ptr noundef @test_check_prime_factor_range.p3, i32 noundef 5)
  store ptr %20, ptr %6, align 8, !tbaa !8
  %21 = call i32 @test_ptr(ptr noundef @.str.11, i32 noundef 154, ptr noundef @.str.24, ptr noundef %20)
  %22 = icmp ne i32 %21, 0
  br i1 %22, label %23, label %138

23:                                               ; preds = %19
  %24 = call ptr @bn_load_new(ptr noundef @test_check_prime_factor_range.p4, i32 noundef 5)
  store ptr %24, ptr %7, align 8, !tbaa !8
  %25 = call i32 @test_ptr(ptr noundef @.str.11, i32 noundef 155, ptr noundef @.str.25, ptr noundef %24)
  %26 = icmp ne i32 %25, 0
  br i1 %26, label %27, label %138

27:                                               ; preds = %23
  %28 = call ptr @BN_CTX_new()
  store ptr %28, ptr %2, align 8, !tbaa !11
  %29 = call i32 @test_ptr(ptr noundef @.str.11, i32 noundef 156, ptr noundef @.str.26, ptr noundef %28)
  %30 = icmp ne i32 %29, 0
  br i1 %30, label %31, label %138

31:                                               ; preds = %27
  %32 = load ptr, ptr %3, align 8, !tbaa !8
  %33 = call i32 @BN_set_word(ptr noundef %32, i64 noundef 10)
  %34 = icmp ne i32 %33, 0
  %35 = zext i1 %34 to i32
  %36 = call i32 @test_true(ptr noundef @.str.11, i32 noundef 157, ptr noundef @.str.27, i32 noundef %35)
  %37 = icmp ne i32 %36, 0
  br i1 %37, label %38, label %138

38:                                               ; preds = %31
  %39 = load ptr, ptr %3, align 8, !tbaa !8
  %40 = load ptr, ptr %2, align 8, !tbaa !11
  %41 = call i32 @ossl_rsa_check_prime_factor_range(ptr noundef %39, i32 noundef 8, ptr noundef %40)
  %42 = icmp ne i32 %41, 0
  %43 = zext i1 %42 to i32
  %44 = call i32 @test_false(ptr noundef @.str.11, i32 noundef 158, ptr noundef @.str.28, i32 noundef %43)
  %45 = icmp ne i32 %44, 0
  br i1 %45, label %46, label %138

46:                                               ; preds = %38
  %47 = load ptr, ptr %3, align 8, !tbaa !8
  %48 = call i32 @BN_set_word(ptr noundef %47, i64 noundef 16)
  %49 = icmp ne i32 %48, 0
  %50 = zext i1 %49 to i32
  %51 = call i32 @test_true(ptr noundef @.str.11, i32 noundef 159, ptr noundef @.str.29, i32 noundef %50)
  %52 = icmp ne i32 %51, 0
  br i1 %52, label %53, label %138

53:                                               ; preds = %46
  %54 = load ptr, ptr %3, align 8, !tbaa !8
  %55 = load ptr, ptr %2, align 8, !tbaa !11
  %56 = call i32 @ossl_rsa_check_prime_factor_range(ptr noundef %54, i32 noundef 8, ptr noundef %55)
  %57 = icmp ne i32 %56, 0
  %58 = zext i1 %57 to i32
  %59 = call i32 @test_false(ptr noundef @.str.11, i32 noundef 160, ptr noundef @.str.28, i32 noundef %58)
  %60 = icmp ne i32 %59, 0
  br i1 %60, label %61, label %138

61:                                               ; preds = %53
  %62 = load ptr, ptr %3, align 8, !tbaa !8
  %63 = call i32 @BN_set_word(ptr noundef %62, i64 noundef 11)
  %64 = icmp ne i32 %63, 0
  %65 = zext i1 %64 to i32
  %66 = call i32 @test_true(ptr noundef @.str.11, i32 noundef 161, ptr noundef @.str.30, i32 noundef %65)
  %67 = icmp ne i32 %66, 0
  br i1 %67, label %68, label %138

68:                                               ; preds = %61
  %69 = load ptr, ptr %3, align 8, !tbaa !8
  %70 = load ptr, ptr %2, align 8, !tbaa !11
  %71 = call i32 @ossl_rsa_check_prime_factor_range(ptr noundef %69, i32 noundef 8, ptr noundef %70)
  %72 = icmp ne i32 %71, 0
  %73 = zext i1 %72 to i32
  %74 = call i32 @test_false(ptr noundef @.str.11, i32 noundef 162, ptr noundef @.str.28, i32 noundef %73)
  %75 = icmp ne i32 %74, 0
  br i1 %75, label %76, label %138

76:                                               ; preds = %68
  %77 = load ptr, ptr %3, align 8, !tbaa !8
  %78 = call i32 @BN_set_word(ptr noundef %77, i64 noundef 12)
  %79 = icmp ne i32 %78, 0
  %80 = zext i1 %79 to i32
  %81 = call i32 @test_true(ptr noundef @.str.11, i32 noundef 163, ptr noundef @.str.31, i32 noundef %80)
  %82 = icmp ne i32 %81, 0
  br i1 %82, label %83, label %138

83:                                               ; preds = %76
  %84 = load ptr, ptr %3, align 8, !tbaa !8
  %85 = load ptr, ptr %2, align 8, !tbaa !11
  %86 = call i32 @ossl_rsa_check_prime_factor_range(ptr noundef %84, i32 noundef 8, ptr noundef %85)
  %87 = icmp ne i32 %86, 0
  %88 = zext i1 %87 to i32
  %89 = call i32 @test_true(ptr noundef @.str.11, i32 noundef 164, ptr noundef @.str.28, i32 noundef %88)
  %90 = icmp ne i32 %89, 0
  br i1 %90, label %91, label %138

91:                                               ; preds = %83
  %92 = load ptr, ptr %3, align 8, !tbaa !8
  %93 = call i32 @BN_set_word(ptr noundef %92, i64 noundef 15)
  %94 = icmp ne i32 %93, 0
  %95 = zext i1 %94 to i32
  %96 = call i32 @test_true(ptr noundef @.str.11, i32 noundef 165, ptr noundef @.str.32, i32 noundef %95)
  %97 = icmp ne i32 %96, 0
  br i1 %97, label %98, label %138

98:                                               ; preds = %91
  %99 = load ptr, ptr %3, align 8, !tbaa !8
  %100 = load ptr, ptr %2, align 8, !tbaa !11
  %101 = call i32 @ossl_rsa_check_prime_factor_range(ptr noundef %99, i32 noundef 8, ptr noundef %100)
  %102 = icmp ne i32 %101, 0
  %103 = zext i1 %102 to i32
  %104 = call i32 @test_true(ptr noundef @.str.11, i32 noundef 166, ptr noundef @.str.28, i32 noundef %103)
  %105 = icmp ne i32 %104, 0
  br i1 %105, label %106, label %138

106:                                              ; preds = %98
  %107 = load ptr, ptr %4, align 8, !tbaa !8
  %108 = load ptr, ptr %2, align 8, !tbaa !11
  %109 = call i32 @ossl_rsa_check_prime_factor_range(ptr noundef %107, i32 noundef 72, ptr noundef %108)
  %110 = icmp ne i32 %109, 0
  %111 = zext i1 %110 to i32
  %112 = call i32 @test_false(ptr noundef @.str.11, i32 noundef 167, ptr noundef @.str.33, i32 noundef %111)
  %113 = icmp ne i32 %112, 0
  br i1 %113, label %114, label %138

114:                                              ; preds = %106
  %115 = load ptr, ptr %5, align 8, !tbaa !8
  %116 = load ptr, ptr %2, align 8, !tbaa !11
  %117 = call i32 @ossl_rsa_check_prime_factor_range(ptr noundef %115, i32 noundef 72, ptr noundef %116)
  %118 = icmp ne i32 %117, 0
  %119 = zext i1 %118 to i32
  %120 = call i32 @test_false(ptr noundef @.str.11, i32 noundef 168, ptr noundef @.str.34, i32 noundef %119)
  %121 = icmp ne i32 %120, 0
  br i1 %121, label %122, label %138

122:                                              ; preds = %114
  %123 = load ptr, ptr %6, align 8, !tbaa !8
  %124 = load ptr, ptr %2, align 8, !tbaa !11
  %125 = call i32 @ossl_rsa_check_prime_factor_range(ptr noundef %123, i32 noundef 72, ptr noundef %124)
  %126 = icmp ne i32 %125, 0
  %127 = zext i1 %126 to i32
  %128 = call i32 @test_true(ptr noundef @.str.11, i32 noundef 169, ptr noundef @.str.35, i32 noundef %127)
  %129 = icmp ne i32 %128, 0
  br i1 %129, label %130, label %138

130:                                              ; preds = %122
  %131 = load ptr, ptr %7, align 8, !tbaa !8
  %132 = load ptr, ptr %2, align 8, !tbaa !11
  %133 = call i32 @ossl_rsa_check_prime_factor_range(ptr noundef %131, i32 noundef 72, ptr noundef %132)
  %134 = icmp ne i32 %133, 0
  %135 = zext i1 %134 to i32
  %136 = call i32 @test_true(ptr noundef @.str.11, i32 noundef 170, ptr noundef @.str.36, i32 noundef %135)
  %137 = icmp ne i32 %136, 0
  br label %138

138:                                              ; preds = %130, %122, %114, %106, %98, %91, %83, %76, %68, %61, %53, %46, %38, %31, %27, %23, %19, %15, %11, %0
  %139 = phi i1 [ false, %122 ], [ false, %114 ], [ false, %106 ], [ false, %98 ], [ false, %91 ], [ false, %83 ], [ false, %76 ], [ false, %68 ], [ false, %61 ], [ false, %53 ], [ false, %46 ], [ false, %38 ], [ false, %31 ], [ false, %27 ], [ false, %23 ], [ false, %19 ], [ false, %15 ], [ false, %11 ], [ false, %0 ], [ %137, %130 ]
  %140 = zext i1 %139 to i32
  store i32 %140, ptr %1, align 4, !tbaa !4
  %141 = load ptr, ptr %7, align 8, !tbaa !8
  call void @BN_free(ptr noundef %141)
  %142 = load ptr, ptr %6, align 8, !tbaa !8
  call void @BN_free(ptr noundef %142)
  %143 = load ptr, ptr %5, align 8, !tbaa !8
  call void @BN_free(ptr noundef %143)
  %144 = load ptr, ptr %4, align 8, !tbaa !8
  call void @BN_free(ptr noundef %144)
  %145 = load ptr, ptr %3, align 8, !tbaa !8
  call void @BN_free(ptr noundef %145)
  %146 = load ptr, ptr %2, align 8, !tbaa !11
  call void @BN_CTX_free(ptr noundef %146)
  %147 = load i32, ptr %1, align 4, !tbaa !4
  call void @llvm.lifetime.end.p0(i64 8, ptr %7) #3
  call void @llvm.lifetime.end.p0(i64 8, ptr %6) #3
  call void @llvm.lifetime.end.p0(i64 8, ptr %5) #3
  call void @llvm.lifetime.end.p0(i64 8, ptr %4) #3
  call void @llvm.lifetime.end.p0(i64 8, ptr %3) #3
  call void @llvm.lifetime.end.p0(i64 8, ptr %2) #3
  call void @llvm.lifetime.end.p0(i64 4, ptr %1) #3
  ret i32 %147
}