; Function Attrs: nounwind uwtable
define internal range(i32 0, 2) i32 @test_check_prime_factor_range() #0 {
  %1 = tail call ptr @BN_new() #2
  %2 = tail call i32 @test_ptr(ptr noundef nonnull @.str.11, i32 noundef 151, ptr noundef nonnull @.str.21, ptr noundef %1) #2
  %.not = icmp eq i32 %2, 0
  br i1 %.not, label %98, label %3

3:                                                ; preds = %0
  %4 = tail call ptr @BN_new() #2
  %.not.i = icmp eq ptr %4, null
  br i1 %.not.i, label %bn_load_new.exit, label %5

5:                                                ; preds = %3
  %6 = tail call ptr @BN_bin2bn(ptr noundef nonnull @test_check_prime_factor_range.p1, i32 noundef 5, ptr noundef nonnull %4) #2
  br label %bn_load_new.exit

bn_load_new.exit:                                 ; preds = %3, %5
  %7 = tail call i32 @test_ptr(ptr noundef nonnull @.str.11, i32 noundef 152, ptr noundef nonnull @.str.22, ptr noundef %4) #2
  %.not33 = icmp eq i32 %7, 0
  br i1 %.not33, label %98, label %8

8:                                                ; preds = %bn_load_new.exit
  %9 = tail call ptr @BN_new() #2
  %.not.i51 = icmp eq ptr %9, null
  br i1 %.not.i51, label %bn_load_new.exit52, label %10

10:                                               ; preds = %8
  %11 = tail call ptr @BN_bin2bn(ptr noundef nonnull @test_check_prime_factor_range.p2, i32 noundef 5, ptr noundef nonnull %9) #2
  br label %bn_load_new.exit52

bn_load_new.exit52:                               ; preds = %8, %10
  %12 = tail call i32 @test_ptr(ptr noundef nonnull @.str.11, i32 noundef 153, ptr noundef nonnull @.str.23, ptr noundef %9) #2
  %.not34 = icmp eq i32 %12, 0
  br i1 %.not34, label %98, label %13

13:                                               ; preds = %bn_load_new.exit52
  %14 = tail call ptr @BN_new() #2
  %.not.i53 = icmp eq ptr %14, null
  br i1 %.not.i53, label %bn_load_new.exit54, label %15

15:                                               ; preds = %13
  %16 = tail call ptr @BN_bin2bn(ptr noundef nonnull @test_check_prime_factor_range.p3, i32 noundef 5, ptr noundef nonnull %14) #2
  br label %bn_load_new.exit54

bn_load_new.exit54:                               ; preds = %13, %15
  %17 = tail call i32 @test_ptr(ptr noundef nonnull @.str.11, i32 noundef 154, ptr noundef nonnull @.str.24, ptr noundef %14) #2
  %.not35 = icmp eq i32 %17, 0
  br i1 %.not35, label %98, label %18

18:                                               ; preds = %bn_load_new.exit54
  %19 = tail call ptr @BN_new() #2
  %.not.i55 = icmp eq ptr %19, null
  br i1 %.not.i55, label %bn_load_new.exit56, label %20

20:                                               ; preds = %18
  %21 = tail call ptr @BN_bin2bn(ptr noundef nonnull @test_check_prime_factor_range.p4, i32 noundef 5, ptr noundef nonnull %19) #2
  br label %bn_load_new.exit56

bn_load_new.exit56:                               ; preds = %18, %20
  %22 = tail call i32 @test_ptr(ptr noundef nonnull @.str.11, i32 noundef 155, ptr noundef nonnull @.str.25, ptr noundef %19) #2
  %.not36 = icmp eq i32 %22, 0
  br i1 %.not36, label %98, label %23

23:                                               ; preds = %bn_load_new.exit56
  %24 = tail call ptr @BN_CTX_new() #2
  %25 = tail call i32 @test_ptr(ptr noundef nonnull @.str.11, i32 noundef 156, ptr noundef nonnull @.str.26, ptr noundef %24) #2
  %.not37 = icmp eq i32 %25, 0
  br i1 %.not37, label %98, label %26

26:                                               ; preds = %23
  %27 = tail call i32 @BN_set_word(ptr noundef %1, i64 noundef 10) #2
  %28 = icmp ne i32 %27, 0
  %29 = zext i1 %28 to i32
  %30 = tail call i32 @test_true(ptr noundef nonnull @.str.11, i32 noundef 157, ptr noundef nonnull @.str.27, i32 noundef %29) #2
  %.not38 = icmp eq i32 %30, 0
  br i1 %.not38, label %98, label %31

31:                                               ; preds = %26
  %32 = tail call i32 @ossl_rsa_check_prime_factor_range(ptr noundef %1, i32 noundef 8, ptr noundef %24) #2
  %33 = icmp ne i32 %32, 0
  %34 = zext i1 %33 to i32
  %35 = tail call i32 @test_false(ptr noundef nonnull @.str.11, i32 noundef 158, ptr noundef nonnull @.str.28, i32 noundef %34) #2
  %.not39 = icmp eq i32 %35, 0
  br i1 %.not39, label %98, label %36

36:                                               ; preds = %31
  %37 = tail call i32 @BN_set_word(ptr noundef %1, i64 noundef 16) #2
  %38 = icmp ne i32 %37, 0
  %39 = zext i1 %38 to i32
  %40 = tail call i32 @test_true(ptr noundef nonnull @.str.11, i32 noundef 159, ptr noundef nonnull @.str.29, i32 noundef %39) #2
  %.not40 = icmp eq i32 %40, 0
  br i1 %.not40, label %98, label %41

41:                                               ; preds = %36
  %42 = tail call i32 @ossl_rsa_check_prime_factor_range(ptr noundef %1, i32 noundef 8, ptr noundef %24) #2
  %43 = icmp ne i32 %42, 0
  %44 = zext i1 %43 to i32
  %45 = tail call i32 @test_false(ptr noundef nonnull @.str.11, i32 noundef 160, ptr noundef nonnull @.str.28, i32 noundef %44) #2
  %.not41 = icmp eq i32 %45, 0
  br i1 %.not41, label %98, label %46

46:                                               ; preds = %41
  %47 = tail call i32 @BN_set_word(ptr noundef %1, i64 noundef 11) #2
  %48 = icmp ne i32 %47, 0
  %49 = zext i1 %48 to i32
  %50 = tail call i32 @test_true(ptr noundef nonnull @.str.11, i32 noundef 161, ptr noundef nonnull @.str.30, i32 noundef %49) #2
  %.not42 = icmp eq i32 %50, 0
  br i1 %.not42, label %98, label %51

51:                                               ; preds = %46
  %52 = tail call i32 @ossl_rsa_check_prime_factor_range(ptr noundef %1, i32 noundef 8, ptr noundef %24) #2
  %53 = icmp ne i32 %52, 0
  %54 = zext i1 %53 to i32
  %55 = tail call i32 @test_false(ptr noundef nonnull @.str.11, i32 noundef 162, ptr noundef nonnull @.str.28, i32 noundef %54) #2
  %.not43 = icmp eq i32 %55, 0
  br i1 %.not43, label %98, label %56

56:                                               ; preds = %51
  %57 = tail call i32 @BN_set_word(ptr noundef %1, i64 noundef 12) #2
  %58 = icmp ne i32 %57, 0
  %59 = zext i1 %58 to i32
  %60 = tail call i32 @test_true(ptr noundef nonnull @.str.11, i32 noundef 163, ptr noundef nonnull @.str.31, i32 noundef %59) #2
  %.not44 = icmp eq i32 %60, 0
  br i1 %.not44, label %98, label %61

61:                                               ; preds = %56
  %62 = tail call i32 @ossl_rsa_check_prime_factor_range(ptr noundef %1, i32 noundef 8, ptr noundef %24) #2
  %63 = icmp ne i32 %62, 0
  %64 = zext i1 %63 to i32
  %65 = tail call i32 @test_true(ptr noundef nonnull @.str.11, i32 noundef 164, ptr noundef nonnull @.str.28, i32 noundef %64) #2
  %.not45 = icmp eq i32 %65, 0
  br i1 %.not45, label %98, label %66

66:                                               ; preds = %61
  %67 = tail call i32 @BN_set_word(ptr noundef %1, i64 noundef 15) #2
  %68 = icmp ne i32 %67, 0
  %69 = zext i1 %68 to i32
  %70 = tail call i32 @test_true(ptr noundef nonnull @.str.11, i32 noundef 165, ptr noundef nonnull @.str.32, i32 noundef %69) #2
  %.not46 = icmp eq i32 %70, 0
  br i1 %.not46, label %98, label %71

71:                                               ; preds = %66
  %72 = tail call i32 @ossl_rsa_check_prime_factor_range(ptr noundef %1, i32 noundef 8, ptr noundef %24) #2
  %73 = icmp ne i32 %72, 0
  %74 = zext i1 %73 to i32
  %75 = tail call i32 @test_true(ptr noundef nonnull @.str.11, i32 noundef 166, ptr noundef nonnull @.str.28, i32 noundef %74) #2
  %.not47 = icmp eq i32 %75, 0
  br i1 %.not47, label %98, label %76

76:                                               ; preds = %71
  %77 = tail call i32 @ossl_rsa_check_prime_factor_range(ptr noundef %4, i32 noundef 72, ptr noundef %24) #2
  %78 = icmp ne i32 %77, 0
  %79 = zext i1 %78 to i32
  %80 = tail call i32 @test_false(ptr noundef nonnull @.str.11, i32 noundef 167, ptr noundef nonnull @.str.33, i32 noundef %79) #2
  %.not48 = icmp eq i32 %80, 0
  br i1 %.not48, label %98, label %81

81:                                               ; preds = %76
  %82 = tail call i32 @ossl_rsa_check_prime_factor_range(ptr noundef %9, i32 noundef 72, ptr noundef %24) #2
  %83 = icmp ne i32 %82, 0
  %84 = zext i1 %83 to i32
  %85 = tail call i32 @test_false(ptr noundef nonnull @.str.11, i32 noundef 168, ptr noundef nonnull @.str.34, i32 noundef %84) #2
  %.not49 = icmp eq i32 %85, 0
  br i1 %.not49, label %98, label %86

86:                                               ; preds = %81
  %87 = tail call i32 @ossl_rsa_check_prime_factor_range(ptr noundef %14, i32 noundef 72, ptr noundef %24) #2
  %88 = icmp ne i32 %87, 0
  %89 = zext i1 %88 to i32
  %90 = tail call i32 @test_true(ptr noundef nonnull @.str.11, i32 noundef 169, ptr noundef nonnull @.str.35, i32 noundef %89) #2
  %.not50 = icmp eq i32 %90, 0
  br i1 %.not50, label %98, label %91

91:                                               ; preds = %86
  %92 = tail call i32 @ossl_rsa_check_prime_factor_range(ptr noundef %19, i32 noundef 72, ptr noundef %24) #2
  %93 = icmp ne i32 %92, 0
  %94 = zext i1 %93 to i32
  %95 = tail call i32 @test_true(ptr noundef nonnull @.str.11, i32 noundef 170, ptr noundef nonnull @.str.36, i32 noundef %94) #2
  %96 = icmp ne i32 %95, 0
  %97 = zext i1 %96 to i32
  br label %98

98:                                               ; preds = %91, %86, %81, %76, %71, %66, %61, %56, %51, %46, %41, %36, %31, %26, %23, %bn_load_new.exit56, %bn_load_new.exit54, %bn_load_new.exit52, %bn_load_new.exit, %0
  %.032 = phi ptr [ %24, %91 ], [ %24, %86 ], [ %24, %81 ], [ %24, %76 ], [ %24, %71 ], [ %24, %66 ], [ %24, %61 ], [ %24, %56 ], [ %24, %51 ], [ %24, %46 ], [ %24, %41 ], [ %24, %36 ], [ %24, %31 ], [ %24, %26 ], [ %24, %23 ], [ null, %bn_load_new.exit56 ], [ null, %bn_load_new.exit54 ], [ null, %bn_load_new.exit52 ], [ null, %bn_load_new.exit ], [ null, %0 ]
  %.031 = phi ptr [ %4, %91 ], [ %4, %86 ], [ %4, %81 ], [ %4, %76 ], [ %4, %71 ], [ %4, %66 ], [ %4, %61 ], [ %4, %56 ], [ %4, %51 ], [ %4, %46 ], [ %4, %41 ], [ %4, %36 ], [ %4, %31 ], [ %4, %26 ], [ %4, %23 ], [ %4, %bn_load_new.exit56 ], [ %4, %bn_load_new.exit54 ], [ %4, %bn_load_new.exit52 ], [ %4, %bn_load_new.exit ], [ null, %0 ]
  %.030 = phi ptr [ %9, %91 ], [ %9, %86 ], [ %9, %81 ], [ %9, %76 ], [ %9, %71 ], [ %9, %66 ], [ %9, %61 ], [ %9, %56 ], [ %9, %51 ], [ %9, %46 ], [ %9, %41 ], [ %9, %36 ], [ %9, %31 ], [ %9, %26 ], [ %9, %23 ], [ %9, %bn_load_new.exit56 ], [ %9, %bn_load_new.exit54 ], [ %9, %bn_load_new.exit52 ], [ null, %bn_load_new.exit ], [ null, %0 ]
  %.029 = phi ptr [ %14, %91 ], [ %14, %86 ], [ %14, %81 ], [ %14, %76 ], [ %14, %71 ], [ %14, %66 ], [ %14, %61 ], [ %14, %56 ], [ %14, %51 ], [ %14, %46 ], [ %14, %41 ], [ %14, %36 ], [ %14, %31 ], [ %14, %26 ], [ %14, %23 ], [ %14, %bn_load_new.exit56 ], [ %14, %bn_load_new.exit54 ], [ null, %bn_load_new.exit52 ], [ null, %bn_load_new.exit ], [ null, %0 ]
  %.0 = phi ptr [ %19, %91 ], [ %19, %86 ], [ %19, %81 ], [ %19, %76 ], [ %19, %71 ], [ %19, %66 ], [ %19, %61 ], [ %19, %56 ], [ %19, %51 ], [ %19, %46 ], [ %19, %41 ], [ %19, %36 ], [ %19, %31 ], [ %19, %26 ], [ %19, %23 ], [ %19, %bn_load_new.exit56 ], [ null, %bn_load_new.exit54 ], [ null, %bn_load_new.exit52 ], [ null, %bn_load_new.exit ], [ null, %0 ]
  %99 = phi i32 [ %97, %91 ], [ 0, %86 ], [ 0, %81 ], [ 0, %76 ], [ 0, %71 ], [ 0, %66 ], [ 0, %61 ], [ 0, %56 ], [ 0, %51 ], [ 0, %46 ], [ 0, %41 ], [ 0, %36 ], [ 0, %31 ], [ 0, %26 ], [ 0, %23 ], [ 0, %bn_load_new.exit56 ], [ 0, %bn_load_new.exit54 ], [ 0, %bn_load_new.exit52 ], [ 0, %bn_load_new.exit ], [ 0, %0 ]
  tail call void @BN_free(ptr noundef %.0) #2
  tail call void @BN_free(ptr noundef %.029) #2
  tail call void @BN_free(ptr noundef %.030) #2
  tail call void @BN_free(ptr noundef %.031) #2
  tail call void @BN_free(ptr noundef %1) #2
  tail call void @BN_CTX_free(ptr noundef %.032) #2
  ret i32 %99
}